target datalayout = "e-m:e-p270:32:32-p271:32:32-p272:64:64-i64:64-i128:128-f80:128-n8:16:32:64-S128"
target triple = "x86_64-pc-linux-gnu"

%struct.aeEventLoop = type { i32, i32, i64, i32, ptr, ptr, ptr, i32, ptr, ptr, ptr, i32, [2 x ptr] }
%struct.aeFileEvent = type { i32, ptr, ptr, ptr }
%struct.aeApiState = type { i32, ptr }
%struct.epoll_event = type <{ i32, %union.epoll_data }>
%union.epoll_data = type { ptr }

; Function Attrs: nounwind uwtable
define internal i32 @aeApiAddEvent(ptr noundef %0, i32 noundef %1, i32 noundef %2) #0 {
  %4 = alloca i32, align 4
  %5 = alloca ptr, align 8
  %6 = alloca i32, align 4
  %7 = alloca i32, align 4
  %8 = alloca ptr, align 8
  %9 = alloca %struct.epoll_event, align 1
  %10 = alloca i32, align 4
  %11 = alloca i32, align 4
  store ptr %0, ptr %5, align 8, !tbaa !9
  store i32 %1, ptr %6, align 4, !tbaa !5
  store i32 %2, ptr %7, align 4, !tbaa !5
  call void @llvm.lifetime.start.p0(i64 8, ptr %8) #10
  %12 = load ptr, ptr %5, align 8, !tbaa !9
  %13 = getelementptr inbounds nuw %struct.aeEventLoop, ptr %12, i32 0, i32 8
  %14 = load ptr, ptr %13, align 8, !tbaa !38
  store ptr %14, ptr %8, align 8, !tbaa !32
  call void @llvm.lifetime.start.p0(i64 12, ptr %9) #10
  call void @llvm.memset.p0.i64(ptr align 1 %9, i8 0, i64 12, i1 false)
  call void @llvm.lifetime.start.p0(i64 4, ptr %10) #10
  %15 = load ptr, ptr %5, align 8, !tbaa !9
  %16 = getelementptr inbounds nuw %struct.aeEventLoop, ptr %15, i32 0, i32 4
  %17 = load ptr, ptr %16, align 8, !tbaa !18
  %18 = load i32, ptr %6, align 4, !tbaa !5
  %19 = sext i32 %18 to i64
  %20 = getelementptr inbounds %struct.aeFileEvent, ptr %17, i64 %19
  %21 = getelementptr inbounds nuw %struct.aeFileEvent, ptr %20, i32 0, i32 0
  %22 = load i32, ptr %21, align 8, !tbaa !28
  %23 = icmp eq i32 %22, 0
  %24 = select i1 %23, i32 1, i32 3
  store i32 %24, ptr %10, align 4, !tbaa !5
  %25 = getelementptr inbounds nuw %struct.epoll_event, ptr %9, i32 0, i32 0
  store i32 0, ptr %25, align 1, !tbaa !52
  %26 = load ptr, ptr %5, align 8, !tbaa !9
  %27 = getelementptr inbounds nuw %struct.aeEventLoop, ptr %26, i32 0, i32 4
  %28 = load ptr, ptr %27, align 8, !tbaa !18
  %29 = load i32, ptr %6, align 4, !tbaa !5
  %30 = sext i32 %29 to i64
  %31 = getelementptr inbounds %struct.aeFileEvent, ptr %28, i64 %30
  %32 = getelementptr inbounds nuw %struct.aeFileEvent, ptr %31, i32 0, i32 0
  %33 = load i32, ptr %32, align 8, !tbaa !28
  %34 = load i32, ptr %7, align 4, !tbaa !5
  %35 = or i32 %34, %33
  store i32 %35, ptr %7, align 4, !tbaa !5
  %36 = load i32, ptr %7, align 4, !tbaa !5
  %37 = and i32 %36, 1
  %38 = icmp ne i32 %37, 0
  br i1 %38, label %39, label %43

39:                                               ; preds = %3
  %40 = getelementptr inbounds nuw %struct.epoll_event, ptr %9, i32 0, i32 0
  %41 = load i32, ptr %40, align 1, !tbaa !52
  %42 = or i32 %41, 1
  store i32 %42, ptr %40, align 1, !tbaa !52
  br label %43

43:                                               ; preds = %39, %3
  %44 = load i32, ptr %7, align 4, !tbaa !5
  %45 = and i32 %44, 2
  %46 = icmp ne i32 %45, 0
  br i1 %46, label %47, label %51

47:                                               ; preds = %43
  %48 = getelementptr inbounds nuw %struct.epoll_event, ptr %9, i32 0, i32 0
  %49 = load i32, ptr %48, align 1, !tbaa !52
  %50 = or i32 %49, 4
  store i32 %50, ptr %48, align 1, !tbaa !52
  br label %51

51:                                               ; preds = %47, %43
  %52 = load i32, ptr %6, align 4, !tbaa !5
  %53 = getelementptr inbounds nuw %struct.epoll_event, ptr %9, i32 0, i32 1
  store i32 %52, ptr %53, align 1, !tbaa !54
  %54 = load ptr, ptr %8, align 8, !tbaa !32
  %55 = getelementptr inbounds nuw %struct.aeApiState, ptr %54, i32 0, i32 0
  %56 = load i32, ptr %55, align 8, !tbaa !37
  %57 = load i32, ptr %10, align 4, !tbaa !5
  %58 = load i32, ptr %6, align 4, !tbaa !5
  %59 = call i32 @epoll_ctl(i32 noundef %56, i32 noundef %57, i32 noundef %58, ptr noundef %9) #10
  %60 = icmp eq i32 %59, -1
  br i1 %60, label %61, label %62

61:                                               ; preds = %51
  store i32 -1, ptr %4, align 4
  store i32 1, ptr %11, align 4
  br label %63

62:                                               ; preds = %51
  store i32 0, ptr %4, align 4
  store i32 1, ptr %11, align 4
  br label %63

63:                                               ; preds = %62, %61
  call void @llvm.lifetime.end.p0(i64 4, ptr %10) #10
  call void @llvm.lifetime.end.p0(i64 12, ptr %9) #10
  call void @llvm.lifetime.end.p0(i64 8, ptr %8) #10
  %64 = load i32, ptr %4, align 4
  ret i32 %64
}

; Function Attrs: nounwind uwtable
define dso_local i32 @aeCreateFileEvent(ptr noundef %0, i32 noundef %1, i32 noundef %2, ptr noundef %3, ptr noundef %4) #0 {
  %6 = alloca i32, align 4
  %7 = alloca ptr, align 8
  %8 = alloca i32, align 4
  %9 = alloca i32, align 4
  %10 = alloca ptr, align 8
  %11 = alloca ptr, align 8
  %12 = alloca i32, align 4
  %13 = alloca i32, align 4
  %14 = alloca ptr, align 8
  %15 = alloca i32, align 4
  store ptr %0, ptr %7, align 8, !tbaa !9
  store i32 %1, ptr %8, align 4, !tbaa !5
  store i32 %2, ptr %9, align 4, !tbaa !5
  store ptr %3, ptr %10, align 8, !tbaa !46
  store ptr %4, ptr %11, align 8, !tbaa !46
  %16 = load i32, ptr %8, align 4, !tbaa !5
  %17 = load ptr, ptr %7, align 8, !tbaa !9
  %18 = getelementptr inbounds nuw %struct.aeEventLoop, ptr %17, i32 0, i32 1
  %19 = load i32, ptr %18, align 4, !tbaa !20
  %20 = icmp sge i32 %16, %19
  br i1 %20, label %21, label %23

21:                                               ; preds = %5
  %22 = call ptr @__errno_location() #13
  store i32 34, ptr %22, align 4, !tbaa !5
  store i32 -1, ptr %6, align 4
  br label %155

23:                                               ; preds = %5
  %24 = load i32, ptr %8, align 4, !tbaa !5
  %25 = load ptr, ptr %7, align 8, !tbaa !9
  %26 = getelementptr inbounds nuw %struct.aeEventLoop, ptr %25, i32 0, i32 3
  %27 = load i32, ptr %26, align 8, !tbaa !12
  %28 = icmp sge i32 %24, %27
  %29 = xor i1 %28, true
  %30 = xor i1 %29, true
  %31 = zext i1 %30 to i32
  %32 = sext i32 %31 to i64
  %33 = call i64 @llvm.expect.i64(i64 %32, i64 0)
  %34 = icmp ne i64 %33, 0
  br i1 %34, label %35, label %106

35:                                               ; preds = %23
  call void @llvm.lifetime.start.p0(i64 4, ptr %12) #10
  %36 = load ptr, ptr %7, align 8, !tbaa !9
  %37 = getelementptr inbounds nuw %struct.aeEventLoop, ptr %36, i32 0, i32 3
  %38 = load i32, ptr %37, align 8, !tbaa !12
  store i32 %38, ptr %12, align 4, !tbaa !5
  %39 = load i32, ptr %12, align 4, !tbaa !5
  %40 = mul nsw i32 %39, 2
  %41 = load i32, ptr %8, align 4, !tbaa !5
  %42 = add nsw i32 %41, 1
  %43 = icmp sgt i32 %40, %42
  br i1 %43, label %44, label %47

44:                                               ; preds = %35
  %45 = load i32, ptr %12, align 4, !tbaa !5
  %46 = mul nsw i32 %45, 2
  br label %50

47:                                               ; preds = %35
  %48 = load i32, ptr %8, align 4, !tbaa !5
  %49 = add nsw i32 %48, 1
  br label %50

50:                                               ; preds = %47, %44
  %51 = phi i32 [ %46, %44 ], [ %49, %47 ]
  store i32 %51, ptr %12, align 4, !tbaa !5
  %52 = load i32, ptr %12, align 4, !tbaa !5
  %53 = load ptr, ptr %7, align 8, !tbaa !9
  %54 = getelementptr inbounds nuw %struct.aeEventLoop, ptr %53, i32 0, i32 1
  %55 = load i32, ptr %54, align 4, !tbaa !20
  %56 = icmp sgt i32 %52, %55
  br i1 %56, label %57, label %61

57:                                               ; preds = %50
  %58 = load ptr, ptr %7, align 8, !tbaa !9
  %59 = getelementptr inbounds nuw %struct.aeEventLoop, ptr %58, i32 0, i32 1
  %60 = load i32, ptr %59, align 4, !tbaa !20
  br label %63

61:                                               ; preds = %50
  %62 = load i32, ptr %12, align 4, !tbaa !5
  br label %63

63:                                               ; preds = %61, %57
  %64 = phi i32 [ %60, %57 ], [ %62, %61 ]
  store i32 %64, ptr %12, align 4, !tbaa !5
  %65 = load ptr, ptr %7, align 8, !tbaa !9
  %66 = getelementptr inbounds nuw %struct.aeEventLoop, ptr %65, i32 0, i32 4
  %67 = load ptr, ptr %66, align 8, !tbaa !18
  %68 = load i32, ptr %12, align 4, !tbaa !5
  %69 = sext i32 %68 to i64
  %70 = mul i64 32, %69
  %71 = call ptr @zrealloc(ptr noundef %67, i64 noundef %70) #12
  %72 = load ptr, ptr %7, align 8, !tbaa !9
  %73 = getelementptr inbounds nuw %struct.aeEventLoop, ptr %72, i32 0, i32 4
  store ptr %71, ptr %73, align 8, !tbaa !18
  %74 = load ptr, ptr %7, align 8, !tbaa !9
  %75 = getelementptr inbounds nuw %struct.aeEventLoop, ptr %74, i32 0, i32 5
  %76 = load ptr, ptr %75, align 8, !tbaa !19
  %77 = load i32, ptr %12, align 4, !tbaa !5
  %78 = sext i32 %77 to i64
  %79 = mul i64 8, %78
  %80 = call ptr @zrealloc(ptr noundef %76, i64 noundef %79) #12
  %81 = load ptr, ptr %7, align 8, !tbaa !9
  %82 = getelementptr inbounds nuw %struct.aeEventLoop, ptr %81, i32 0, i32 5
  store ptr %80, ptr %82, align 8, !tbaa !19
  call void @llvm.lifetime.start.p0(i64 4, ptr %13) #10
  %83 = load ptr, ptr %7, align 8, !tbaa !9
  %84 = getelementptr inbounds nuw %struct.aeEventLoop, ptr %83, i32 0, i32 3
  %85 = load i32, ptr %84, align 8, !tbaa !12
  store i32 %85, ptr %13, align 4, !tbaa !5
  br label %86

86:                                               ; preds = %99, %63
  %87 = load i32, ptr %13, align 4, !tbaa !5
  %88 = load i32, ptr %12, align 4, !tbaa !5
  %89 = icmp slt i32 %87, %88
  br i1 %89, label %91, label %90

90:                                               ; preds = %86
  call void @llvm.lifetime.end.p0(i64 4, ptr %13) #10
  br label %102

91:                                               ; preds = %86
  %92 = load ptr, ptr %7, align 8, !tbaa !9
  %93 = getelementptr inbounds nuw %struct.aeEventLoop, ptr %92, i32 0, i32 4
  %94 = load ptr, ptr %93, align 8, !tbaa !18
  %95 = load i32, ptr %13, align 4, !tbaa !5
  %96 = sext i32 %95 to i64
  %97 = getelementptr inbounds %struct.aeFileEvent, ptr %94, i64 %96
  %98 = getelementptr inbounds nuw %struct.aeFileEvent, ptr %97, i32 0, i32 0
  store i32 0, ptr %98, align 8, !tbaa !28
  br label %99

99:                                               ; preds = %91
  %100 = load i32, ptr %13, align 4, !tbaa !5
  %101 = add nsw i32 %100, 1
  store i32 %101, ptr %13, align 4, !tbaa !5
  br label %86, !llvm.loop !47

102:                                              ; preds = %90
  %103 = load i32, ptr %12, align 4, !tbaa !5
  %104 = load ptr, ptr %7, align 8, !tbaa !9
  %105 = getelementptr inbounds nuw %struct.aeEventLoop, ptr %104, i32 0, i32 3
  store i32 %103, ptr %105, align 8, !tbaa !12
  call void @llvm.lifetime.end.p0(i64 4, ptr %12) #10
  br label %106

106:                                              ; preds = %102, %23
  call void @llvm.lifetime.start.p0(i64 8, ptr %14) #10
  %107 = load ptr, ptr %7, align 8, !tbaa !9
  %108 = getelementptr inbounds nuw %struct.aeEventLoop, ptr %107, i32 0, i32 4
  %109 = load ptr, ptr %108, align 8, !tbaa !18
  %110 = load i32, ptr %8, align 4, !tbaa !5
  %111 = sext i32 %110 to i64
  %112 = getelementptr inbounds %struct.aeFileEvent, ptr %109, i64 %111
  store ptr %112, ptr %14, align 8, !tbaa !48
  %113 = load ptr, ptr %7, align 8, !tbaa !9
  %114 = load i32, ptr %8, align 4, !tbaa !5
  %115 = load i32, ptr %9, align 4, !tbaa !5
  %116 = call i32 @aeApiAddEvent(ptr noundef %113, i32 noundef %114, i32 noundef %115)
  %117 = icmp eq i32 %116, -1
  br i1 %117, label %118, label %119

118:                                              ; preds = %106
  store i32 -1, ptr %6, align 4
  store i32 1, ptr %15, align 4
  br label %154

119:                                              ; preds = %106
  %120 = load i32, ptr %9, align 4, !tbaa !5
  %121 = load ptr, ptr %14, align 8, !tbaa !48
  %122 = getelementptr inbounds nuw %struct.aeFileEvent, ptr %121, i32 0, i32 0
  %123 = load i32, ptr %122, align 8, !tbaa !28
  %124 = or i32 %123, %120
  store i32 %124, ptr %122, align 8, !tbaa !28
  %125 = load i32, ptr %9, align 4, !tbaa !5
  %126 = and i32 %125, 1
  %127 = icmp ne i32 %126, 0
  br i1 %127, label %128, label %132

128:                                              ; preds = %119
  %129 = load ptr, ptr %10, align 8, !tbaa !46
  %130 = load ptr, ptr %14, align 8, !tbaa !48
  %131 = getelementptr inbounds nuw %struct.aeFileEvent, ptr %130, i32 0, i32 1
  store ptr %129, ptr %131, align 8, !tbaa !49
  br label %132

132:                                              ; preds = %128, %119
  %133 = load i32, ptr %9, align 4, !tbaa !5
  %134 = and i32 %133, 2
  %135 = icmp ne i32 %134, 0
  br i1 %135, label %136, label %140

136:                                              ; preds = %132
  %137 = load ptr, ptr %10, align 8, !tbaa !46
  %138 = load ptr, ptr %14, align 8, !tbaa !48
  %139 = getelementptr inbounds nuw %struct.aeFileEvent, ptr %138, i32 0, i32 2
  store ptr %137, ptr %139, align 8, !tbaa !50
  br label %140

140:                                              ; preds = %136, %132
  %141 = load ptr, ptr %11, align 8, !tbaa !46
  %142 = load ptr, ptr %14, align 8, !tbaa !48
  %143 = getelementptr inbounds nuw %struct.aeFileEvent, ptr %142, i32 0, i32 3
  store ptr %141, ptr %143, align 8, !tbaa !51
  %144 = load i32, ptr %8, align 4, !tbaa !5
  %145 = load ptr, ptr %7, align 8, !tbaa !9
  %146 = getelementptr inbounds nuw %struct.aeEventLoop, ptr %145, i32 0, i32 0
  %147 = load i32, ptr %146, align 8, !tbaa !24
  %148 = icmp sgt i32 %144, %147
  br i1 %148, label %149, label %153

149:                                              ; preds = %140
  %150 = load i32, ptr %8, align 4, !tbaa !5
  %151 = load ptr, ptr %7, align 8, !tbaa !9
  %152 = getelementptr inbounds nuw %struct.aeEventLoop, ptr %151, i32 0, i32 0
  store i32 %150, ptr %152, align 8, !tbaa !24
  br label %153

153:                                              ; preds = %149, %140
  store i32 0, ptr %6, align 4
  store i32 1, ptr %15, align 4
  br label %154

154:                                              ; preds = %153, %118
  call void @llvm.lifetime.end.p0(i64 8, ptr %14) #10
  br label %155

155:                                              ; preds = %154, %21
  %156 = load i32, ptr %6, align 4
  ret i32 %156
}