; Function Attrs: nounwind uwtable
define dso_local range(i32 -1, 1) i32 @aeCreateFileEvent(ptr noundef captures(none) %0, i32 noundef %1, i32 noundef %2, ptr noundef %3, ptr noundef %4) local_unnamed_addr #0 {
  %6 = alloca %struct.epoll_event, align 4
  %7 = getelementptr inbounds nuw i8, ptr %0, i64 4
  %8 = load i32, ptr %7, align 4, !tbaa !17
  %.not = icmp slt i32 %1, %8
  br i1 %.not, label %11, label %9

9:                                                ; preds = %5
  %10 = tail call ptr @__errno_location() #19
  store i32 34, ptr %10, align 4, !tbaa !38
  br label %66

11:                                               ; preds = %5
  %12 = getelementptr inbounds nuw i8, ptr %0, i64 16
  %13 = load i32, ptr %12, align 8, !tbaa !5
  %.not52 = icmp slt i32 %1, %13
  br i1 %.not52, label %33, label %14, !prof !39

14:                                               ; preds = %11
  %15 = shl nsw i32 %13, 1
  %16 = add nsw i32 %1, 1
  %17 = tail call i32 @llvm.smax.i32(i32 %15, i32 %16)
  %. = tail call i32 @llvm.smin.i32(i32 %17, i32 %8)
  %18 = getelementptr inbounds nuw i8, ptr %0, i64 24
  %19 = load ptr, ptr %18, align 8, !tbaa !15
  %20 = sext i32 %. to i64
  %21 = shl nsw i64 %20, 5
  %22 = tail call ptr @zrealloc(ptr noundef %19, i64 noundef %21) #18
  store ptr %22, ptr %18, align 8, !tbaa !15
  %23 = getelementptr inbounds nuw i8, ptr %0, i64 32
  %24 = load ptr, ptr %23, align 8, !tbaa !16
  %25 = shl nsw i64 %20, 3
  %26 = tail call ptr @zrealloc(ptr noundef %24, i64 noundef %25) #18
  store ptr %26, ptr %23, align 8, !tbaa !16
  %27 = load i32, ptr %12, align 8, !tbaa !5
  %28 = icmp slt i32 %27, %.
  br i1 %28, label %.lr.ph, label %._crit_edge

.lr.ph:                                           ; preds = %14
  %29 = load ptr, ptr %18, align 8, !tbaa !15
  %30 = sext i32 %27 to i64
  br label %31

._crit_edge:                                      ; preds = %31, %14
  store i32 %., ptr %12, align 8, !tbaa !5
  br label %33

31:                                               ; preds = %.lr.ph, %31
  %indvars.iv = phi i64 [ %30, %.lr.ph ], [ %indvars.iv.next, %31 ]
  %32 = getelementptr inbounds %struct.aeFileEvent, ptr %29, i64 %indvars.iv
  store i32 0, ptr %32, align 8, !tbaa !27
  %indvars.iv.next = add nsw i64 %indvars.iv, 1
  %exitcond.not = icmp eq i64 %indvars.iv.next, %20
  br i1 %exitcond.not, label %._crit_edge, label %31, !llvm.loop !40

33:                                               ; preds = %._crit_edge, %11
  %34 = getelementptr inbounds nuw i8, ptr %0, i64 24
  %35 = load ptr, ptr %34, align 8, !tbaa !15
  %36 = sext i32 %1 to i64
  %37 = getelementptr inbounds %struct.aeFileEvent, ptr %35, i64 %36
  %38 = getelementptr i8, ptr %0, i64 56
  %.val55 = load ptr, ptr %38, align 8, !tbaa !26
  call void @llvm.lifetime.start.p0(i64 12, ptr nonnull %6) #16
  %39 = getelementptr inbounds nuw i8, ptr %6, i64 8
  store i32 0, ptr %39, align 4
  %40 = load i32, ptr %37, align 8, !tbaa !27
  %41 = or i32 %40, %2
  %42 = and i32 %41, 1
  %43 = shl i32 %41, 1
  %44 = and i32 %43, 4
  %spec.select.i = or disjoint i32 %44, %42
  store i32 %spec.select.i, ptr %6, align 4
  %45 = icmp eq i32 %40, 0
  %46 = select i1 %45, i32 1, i32 3
  %47 = getelementptr inbounds nuw i8, ptr %6, i64 4
  store i32 %1, ptr %47, align 4, !tbaa !41
  %48 = load i32, ptr %.val55, align 8, !tbaa !25
  %49 = call i32 @epoll_ctl(i32 noundef %48, i32 noundef %46, i32 noundef %1, ptr noundef nonnull %6) #16
  %50 = icmp eq i32 %49, -1
  call void @llvm.lifetime.end.p0(i64 12, ptr nonnull %6) #16
  br i1 %50, label %66, label %51

51:                                               ; preds = %33
  %52 = load i32, ptr %37, align 8, !tbaa !27
  %53 = or i32 %52, %2
  store i32 %53, ptr %37, align 8, !tbaa !27
  %54 = and i32 %2, 1
  %.not53 = icmp eq i32 %54, 0
  br i1 %.not53, label %57, label %55

55:                                               ; preds = %51
  %56 = getelementptr inbounds nuw i8, ptr %37, i64 8
  store ptr %3, ptr %56, align 8, !tbaa !42
  br label %57

57:                                               ; preds = %55, %51
  %58 = and i32 %2, 2
  %.not54 = icmp eq i32 %58, 0
  br i1 %.not54, label %61, label %59

59:                                               ; preds = %57
  %60 = getelementptr inbounds nuw i8, ptr %37, i64 16
  store ptr %3, ptr %60, align 8, !tbaa !43
  br label %61

61:                                               ; preds = %59, %57
  %62 = getelementptr inbounds nuw i8, ptr %37, i64 24
  store ptr %4, ptr %62, align 8, !tbaa !44
  %63 = load i32, ptr %0, align 8, !tbaa !21
  %64 = icmp sgt i32 %1, %63
  br i1 %64, label %65, label %66

65:                                               ; preds = %61
  store i32 %1, ptr %0, align 8, !tbaa !21
  br label %66

66:                                               ; preds = %33, %65, %61, %9
  %.0 = phi i32 [ -1, %9 ], [ -1, %33 ], [ 0, %65 ], [ 0, %61 ]
  ret i32 %.0
}